target datalayout = "e-m:e-p270:32:32-p271:32:32-p272:64:64-i64:64-i128:128-f80:128-n8:16:32:64-S128"
target triple = "x86_64-pc-linux-gnu"

%struct.wtap = type { ptr, ptr, i8, i32, i32, ptr, ptr, ptr, i32, ptr, ptr, ptr, ptr, ptr, ptr, ptr, ptr, ptr, ptr, i32, i32, ptr, ptr, ptr, ptr }

@toshiba_file_type_subtype = internal global i32 -1, align 4
@toshiba_hdr_magic = internal constant [13 x i8] c"T O S H I B A", align 1

; Function Attrs: null_pointer_is_valid sspstrong uwtable
define internal zeroext i1 @toshiba_check_file_type(ptr noundef %0, ptr noundef %1, ptr noundef %2) #0 {
  %4 = alloca i1, align 1
  %5 = alloca ptr, align 8
  %6 = alloca ptr, align 8
  %7 = alloca ptr, align 8
  %8 = alloca [240 x i8], align 16
  %9 = alloca i32, align 4
  %10 = alloca i32, align 4
  %11 = alloca i32, align 4
  %12 = alloca i32, align 4
  %13 = alloca i8, align 1
  %14 = alloca i32, align 4
  store ptr %0, ptr %5, align 8
  store ptr %1, ptr %6, align 8
  store ptr %2, ptr %7, align 8
  call void @llvm.lifetime.start.p0(i64 240, ptr %8) #7
  call void @llvm.lifetime.start.p0(i64 4, ptr %9) #7
  call void @llvm.lifetime.start.p0(i64 4, ptr %10) #7
  call void @llvm.lifetime.start.p0(i64 4, ptr %11) #7
  call void @llvm.lifetime.start.p0(i64 4, ptr %12) #7
  call void @llvm.lifetime.start.p0(i64 1, ptr %13) #7
  %15 = getelementptr [240 x i8], ptr %8, i64 0, i64 239
  store i8 0, ptr %15, align 1
  store i32 0, ptr %12, align 4
  br label %16

16:                                               ; preds = %73, %3
  %17 = load i32, ptr %12, align 4
  %18 = icmp ult i32 %17, 200
  br i1 %18, label %19, label %76

19:                                               ; preds = %16
  %20 = getelementptr inbounds [240 x i8], ptr %8, i64 0, i64 0
  %21 = load ptr, ptr %5, align 8
  %22 = getelementptr inbounds nuw %struct.wtap, ptr %21, i32 0, i32 0
  %23 = load ptr, ptr %22, align 8
  %24 = call ptr @file_gets(ptr noundef %20, i32 noundef 240, ptr noundef %23)
  %25 = icmp eq ptr %24, null
  br i1 %25, label %26, label %33

26:                                               ; preds = %19
  %27 = load ptr, ptr %5, align 8
  %28 = getelementptr inbounds nuw %struct.wtap, ptr %27, i32 0, i32 0
  %29 = load ptr, ptr %28, align 8
  %30 = load ptr, ptr %7, align 8
  %31 = call i32 @file_error(ptr noundef %29, ptr noundef %30)
  %32 = load ptr, ptr %6, align 8
  store i32 %31, ptr %32, align 4
  store i1 false, ptr %4, align 1
  store i32 1, ptr %14, align 4
  br label %78

33:                                               ; preds = %19
  %34 = getelementptr inbounds [240 x i8], ptr %8, i64 0, i64 0
  %35 = call i64 @strlen(ptr noundef %34) #8
  %36 = trunc i64 %35 to i32
  store i32 %36, ptr %10, align 4
  %37 = load i32, ptr %10, align 4
  %38 = zext i32 %37 to i64
  %39 = icmp ult i64 %38, 13
  br i1 %39, label %40, label %41

40:                                               ; preds = %33
  br label %73

41:                                               ; preds = %33
  store i32 0, ptr %11, align 4
  store i32 0, ptr %9, align 4
  br label %42

42:                                               ; preds = %69, %41
  %43 = load i32, ptr %9, align 4
  %44 = load i32, ptr %10, align 4
  %45 = icmp ult i32 %43, %44
  br i1 %45, label %46, label %72

46:                                               ; preds = %42
  %47 = load i32, ptr %9, align 4
  %48 = zext i32 %47 to i64
  %49 = getelementptr [240 x i8], ptr %8, i64 0, i64 %48
  %50 = load i8, ptr %49, align 1
  store i8 %50, ptr %13, align 1
  %51 = load i8, ptr %13, align 1
  %52 = sext i8 %51 to i32
  %53 = load i32, ptr %11, align 4
  %54 = zext i32 %53 to i64
  %55 = getelementptr [13 x i8], ptr @toshiba_hdr_magic, i64 0, i64 %54
  %56 = load i8, ptr %55, align 1
  %57 = sext i8 %56 to i32
  %58 = icmp eq i32 %52, %57
  br i1 %58, label %59, label %67

59:                                               ; preds = %46
  %60 = load i32, ptr %11, align 4
  %61 = add i32 %60, 1
  store i32 %61, ptr %11, align 4
  %62 = load i32, ptr %11, align 4
  %63 = zext i32 %62 to i64
  %64 = icmp uge i64 %63, 13
  br i1 %64, label %65, label %66

65:                                               ; preds = %59
  store i1 true, ptr %4, align 1
  store i32 1, ptr %14, align 4
  br label %78

66:                                               ; preds = %59
  br label %68

67:                                               ; preds = %46
  store i32 0, ptr %11, align 4
  br label %68

68:                                               ; preds = %67, %66
  br label %69

69:                                               ; preds = %68
  %70 = load i32, ptr %9, align 4
  %71 = add i32 %70, 1
  store i32 %71, ptr %9, align 4
  br label %42, !llvm.loop !6

72:                                               ; preds = %42
  br label %73

73:                                               ; preds = %72, %40
  %74 = load i32, ptr %12, align 4
  %75 = add i32 %74, 1
  store i32 %75, ptr %12, align 4
  br label %16, !llvm.loop !8

76:                                               ; preds = %16
  %77 = load ptr, ptr %6, align 8
  store i32 0, ptr %77, align 4
  store i1 false, ptr %4, align 1
  store i32 1, ptr %14, align 4
  br label %78

78:                                               ; preds = %76, %65, %26
  call void @llvm.lifetime.end.p0(i64 1, ptr %13) #7
  call void @llvm.lifetime.end.p0(i64 4, ptr %12) #7
  call void @llvm.lifetime.end.p0(i64 4, ptr %11) #7
  call void @llvm.lifetime.end.p0(i64 4, ptr %10) #7
  call void @llvm.lifetime.end.p0(i64 4, ptr %9) #7
  call void @llvm.lifetime.end.p0(i64 240, ptr %8) #7
  %79 = load i1, ptr %4, align 1
  ret i1 %79
}

; Function Attrs: null_pointer_is_valid sspstrong uwtable
define hidden i32 @toshiba_open(ptr noundef %0, ptr noundef %1, ptr noundef %2) #0 {
  %4 = alloca i32, align 4
  %5 = alloca ptr, align 8
  %6 = alloca ptr, align 8
  %7 = alloca ptr, align 8
  store ptr %0, ptr %5, align 8
  store ptr %1, ptr %6, align 8
  store ptr %2, ptr %7, align 8
  %8 = load ptr, ptr %5, align 8
  %9 = load ptr, ptr %6, align 8
  %10 = load ptr, ptr %7, align 8
  %11 = call zeroext i1 @toshiba_check_file_type(ptr noundef %8, ptr noundef %9, ptr noundef %10)
  br i1 %11, label %22, label %12

12:                                               ; preds = %3
  %13 = load ptr, ptr %6, align 8
  %14 = load i32, ptr %13, align 4
  %15 = icmp ne i32 %14, 0
  br i1 %15, label %16, label %21

16:                                               ; preds = %12
  %17 = load ptr, ptr %6, align 8
  %18 = load i32, ptr %17, align 4
  %19 = icmp ne i32 %18, -12
  br i1 %19, label %20, label %21

20:                                               ; preds = %16
  store i32 -1, ptr %4, align 4
  br label %36

21:                                               ; preds = %16, %12
  store i32 0, ptr %4, align 4
  br label %36

22:                                               ; preds = %3
  %23 = load ptr, ptr %5, align 8
  %24 = getelementptr inbounds nuw %struct.wtap, ptr %23, i32 0, i32 19
  store i32 -1, ptr %24, align 8
  %25 = load i32, ptr @toshiba_file_type_subtype, align 4
  %26 = load ptr, ptr %5, align 8
  %27 = getelementptr inbounds nuw %struct.wtap, ptr %26, i32 0, i32 3
  store i32 %25, ptr %27, align 4
  %28 = load ptr, ptr %5, align 8
  %29 = getelementptr inbounds nuw %struct.wtap, ptr %28, i32 0, i32 4
  store i32 0, ptr %29, align 8
  %30 = load ptr, ptr %5, align 8
  %31 = getelementptr inbounds nuw %struct.wtap, ptr %30, i32 0, i32 15
  store ptr @toshiba_read, ptr %31, align 8
  %32 = load ptr, ptr %5, align 8
  %33 = getelementptr inbounds nuw %struct.wtap, ptr %32, i32 0, i32 16
  store ptr @toshiba_seek_read, ptr %33, align 8
  %34 = load ptr, ptr %5, align 8
  %35 = getelementptr inbounds nuw %struct.wtap, ptr %34, i32 0, i32 20
  store i32 2, ptr %35, align 4
  store i32 1, ptr %4, align 4
  br label %36

36:                                               ; preds = %22, %21, %20
  %37 = load i32, ptr %4, align 4
  ret i32 %37
}