; Function Attrs: null_pointer_is_valid sspstrong uwtable
define hidden range(i32 -1, 2) i32 @toshiba_open(ptr noundef captures(none) %0, ptr noundef writeonly captures(none) %1, ptr noundef %2) local_unnamed_addr #0 {
  %4 = alloca [240 x i8], align 16
  call void @llvm.lifetime.start.p0(i64 240, ptr nonnull %4) #7
  %5 = getelementptr inbounds nuw i8, ptr %4, i64 239
  store i8 0, ptr %5, align 1
  br label %6

6:                                                ; preds = %.loopexit.i, %3
  %.01622.i = phi i32 [ 0, %3 ], [ %27, %.loopexit.i ]
  %7 = load ptr, ptr %0, align 8
  %8 = call ptr @file_gets(ptr noundef nonnull %4, i32 noundef 240, ptr noundef %7)
  %9 = icmp eq ptr %8, null
  br i1 %9, label %10, label %13

10:                                               ; preds = %6
  %11 = load ptr, ptr %0, align 8
  %12 = call i32 @file_error(ptr noundef %11, ptr noundef %2)
  br label %.loopexit

13:                                               ; preds = %6
  %14 = call i64 @strlen(ptr noundef nonnull dereferenceable(1) %4) #8
  %15 = and i64 %14, 4294967295
  %16 = icmp samesign ugt i64 %15, 12
  br i1 %16, label %.lr.ph.i, label %.loopexit.i

.lr.ph.i:                                         ; preds = %13, %26
  %indvars.iv.i = phi i64 [ %indvars.iv.next.i, %26 ], [ 0, %13 ]
  %.01721.i = phi i32 [ %.1.i, %26 ], [ 0, %13 ]
  %17 = getelementptr [240 x i8], ptr %4, i64 0, i64 %indvars.iv.i
  %18 = load i8, ptr %17, align 1
  %19 = zext nneg i32 %.01721.i to i64
  %20 = getelementptr [13 x i8], ptr @toshiba_hdr_magic, i64 0, i64 %19
  %21 = load i8, ptr %20, align 1
  %22 = icmp eq i8 %18, %21
  br i1 %22, label %23, label %26

23:                                               ; preds = %.lr.ph.i
  %24 = add nuw nsw i32 %.01721.i, 1
  %25 = icmp ugt i32 %.01721.i, 11
  br i1 %25, label %29, label %26

26:                                               ; preds = %23, %.lr.ph.i
  %.1.i = phi i32 [ %24, %23 ], [ 0, %.lr.ph.i ]
  %indvars.iv.next.i = add nuw nsw i64 %indvars.iv.i, 1
  %exitcond.not.i = icmp eq i64 %indvars.iv.next.i, %15
  br i1 %exitcond.not.i, label %.loopexit.i, label %.lr.ph.i, !llvm.loop !6

.loopexit.i:                                      ; preds = %26, %13
  %27 = add nuw nsw i32 %.01622.i, 1
  %exitcond24.not.i = icmp eq i32 %27, 200
  br i1 %exitcond24.not.i, label %.loopexit, label %6, !llvm.loop !8

.loopexit:                                        ; preds = %.loopexit.i, %10
  %.sink.i = phi i32 [ %12, %10 ], [ 0, %.loopexit.i ]
  store i32 %.sink.i, ptr %1, align 4
  call void @llvm.lifetime.end.p0(i64 240, ptr nonnull %4) #7
  %switch.selectcmp.case1 = icmp ne i32 %.sink.i, 0
  %switch.selectcmp.case2 = icmp ne i32 %.sink.i, -12
  %switch.selectcmp.not = and i1 %switch.selectcmp.case1, %switch.selectcmp.case2
  %28 = sext i1 %switch.selectcmp.not to i32
  br label %37

29:                                               ; preds = %23
  call void @llvm.lifetime.end.p0(i64 240, ptr nonnull %4) #7
  %30 = getelementptr inbounds nuw i8, ptr %0, i64 144
  store i32 -1, ptr %30, align 8
  %31 = load i32, ptr @toshiba_file_type_subtype, align 4
  %32 = getelementptr inbounds nuw i8, ptr %0, i64 20
  store i32 %31, ptr %32, align 4
  %33 = getelementptr inbounds nuw i8, ptr %0, i64 24
  store i32 0, ptr %33, align 8
  %34 = getelementptr inbounds nuw i8, ptr %0, i64 112
  store ptr @toshiba_read, ptr %34, align 8
  %35 = getelementptr inbounds nuw i8, ptr %0, i64 120
  store ptr @toshiba_seek_read, ptr %35, align 8
  %36 = getelementptr inbounds nuw i8, ptr %0, i64 148
  store i32 2, ptr %36, align 4
  br label %37

37:                                               ; preds = %.loopexit, %29
  %.0 = phi i32 [ 1, %29 ], [ %28, %.loopexit ]
  ret i32 %.0
}